; Function Attrs: mustprogress nounwind uwtable
define hidden void @_ZN5osgeo4proj9operation21InverseTransformationD0Ev(ptr noundef nonnull align 8 dereferenceable(49) %0) unnamed_addr #2 align 2 {
  %2 = getelementptr inbounds i8, ptr %0, i64 24
  tail call void @_ZN5osgeo4proj9operation26InverseCoordinateOperationD2Ev(ptr noundef nonnull align 8 dereferenceable(25) %2, ptr noundef nonnull getelementptr inbounds ([25 x ptr], ptr @_ZTTN5osgeo4proj9operation21InverseTransformationE, i64 0, i64 13)) #21
  tail call void @_ZN5osgeo4proj9operation14TransformationD2Ev(ptr noundef nonnull align 8 dereferenceable(24) %0, ptr noundef nonnull getelementptr inbounds ([25 x ptr], ptr @_ZTTN5osgeo4proj9operation21InverseTransformationE, i64 0, i64 1)) #21
  %3 = getelementptr inbounds i8, ptr %0, i64 56
  tail call void @_ZN5osgeo4proj9operation19CoordinateOperationD2Ev(ptr noundef nonnull align 8 dereferenceable(72) %3) #21
  tail call void @_ZdlPv(ptr noundef nonnull %0) #22
  ret void
}